target datalayout = "e-m:e-p270:32:32-p271:32:32-p272:64:64-i64:64-i128:128-f80:128-n8:16:32:64-S128"
target triple = "x86_64-pc-linux-gnu"

%struct.NAME_CONSTRAINTS_st = type { ptr, ptr }
%struct.GENERAL_SUBTREE_st = type { ptr, ptr, ptr }
%struct.GENERAL_NAME_st = type { i32, %union.anon }
%union.anon = type { ptr }

; Function Attrs: nounwind uwtable
define internal i32 @nc_match(ptr noundef %0, ptr noundef %1) #0 {
  %3 = alloca i32, align 4
  %4 = alloca ptr, align 8
  %5 = alloca ptr, align 8
  %6 = alloca ptr, align 8
  %7 = alloca i32, align 4
  %8 = alloca i32, align 4
  %9 = alloca i64, align 8
  %10 = alloca i32, align 4
  store ptr %0, ptr %4, align 8, !tbaa !67
  store ptr %1, ptr %5, align 8, !tbaa !17
  call void @llvm.lifetime.start.p0(i64 8, ptr %6) #4
  call void @llvm.lifetime.start.p0(i64 4, ptr %7) #4
  call void @llvm.lifetime.start.p0(i64 4, ptr %8) #4
  store i32 0, ptr %8, align 4, !tbaa !41
  call void @llvm.lifetime.start.p0(i64 8, ptr %9) #4
  store i64 0, ptr %9, align 8, !tbaa !21
  br label %11

11:                                               ; preds = %69, %2
  %12 = load i64, ptr %9, align 8, !tbaa !21
  %13 = load ptr, ptr %5, align 8, !tbaa !17
  %14 = getelementptr inbounds nuw %struct.NAME_CONSTRAINTS_st, ptr %13, i32 0, i32 0
  %15 = load ptr, ptr %14, align 8, !tbaa !43
  %16 = call i64 @sk_num(ptr noundef %15)
  %17 = icmp ult i64 %12, %16
  br i1 %17, label %18, label %72

18:                                               ; preds = %11
  %19 = load ptr, ptr %5, align 8, !tbaa !17
  %20 = getelementptr inbounds nuw %struct.NAME_CONSTRAINTS_st, ptr %19, i32 0, i32 0
  %21 = load ptr, ptr %20, align 8, !tbaa !43
  %22 = load i64, ptr %9, align 8, !tbaa !21
  %23 = call ptr @sk_value(ptr noundef %21, i64 noundef %22)
  store ptr %23, ptr %6, align 8, !tbaa !19
  %24 = load ptr, ptr %4, align 8, !tbaa !67
  %25 = getelementptr inbounds nuw %struct.GENERAL_NAME_st, ptr %24, i32 0, i32 0
  %26 = load i32, ptr %25, align 8, !tbaa !50
  %27 = load ptr, ptr %6, align 8, !tbaa !19
  %28 = getelementptr inbounds nuw %struct.GENERAL_SUBTREE_st, ptr %27, i32 0, i32 0
  %29 = load ptr, ptr %28, align 8, !tbaa !30
  %30 = getelementptr inbounds nuw %struct.GENERAL_NAME_st, ptr %29, i32 0, i32 0
  %31 = load i32, ptr %30, align 8, !tbaa !50
  %32 = icmp ne i32 %26, %31
  br i1 %32, label %33, label %34

33:                                               ; preds = %18
  br label %69

34:                                               ; preds = %18
  %35 = load ptr, ptr %6, align 8, !tbaa !19
  %36 = getelementptr inbounds nuw %struct.GENERAL_SUBTREE_st, ptr %35, i32 0, i32 1
  %37 = load ptr, ptr %36, align 8, !tbaa !69
  %38 = icmp ne ptr %37, null
  br i1 %38, label %44, label %39

39:                                               ; preds = %34
  %40 = load ptr, ptr %6, align 8, !tbaa !19
  %41 = getelementptr inbounds nuw %struct.GENERAL_SUBTREE_st, ptr %40, i32 0, i32 2
  %42 = load ptr, ptr %41, align 8, !tbaa !70
  %43 = icmp ne ptr %42, null
  br i1 %43, label %44, label %45

44:                                               ; preds = %39, %34
  store i32 49, ptr %3, align 4
  store i32 1, ptr %10, align 4
  br label %131

45:                                               ; preds = %39
  %46 = load i32, ptr %8, align 4, !tbaa !41
  %47 = icmp eq i32 %46, 2
  br i1 %47, label %48, label %49

48:                                               ; preds = %45
  br label %69

49:                                               ; preds = %45
  %50 = load i32, ptr %8, align 4, !tbaa !41
  %51 = icmp eq i32 %50, 0
  br i1 %51, label %52, label %53

52:                                               ; preds = %49
  store i32 1, ptr %8, align 4, !tbaa !41
  br label %53

53:                                               ; preds = %52, %49
  %54 = load ptr, ptr %4, align 8, !tbaa !67
  %55 = load ptr, ptr %6, align 8, !tbaa !19
  %56 = getelementptr inbounds nuw %struct.GENERAL_SUBTREE_st, ptr %55, i32 0, i32 0
  %57 = load ptr, ptr %56, align 8, !tbaa !30
  %58 = call i32 @nc_match_single(ptr noundef %54, ptr noundef %57)
  store i32 %58, ptr %7, align 4, !tbaa !41
  %59 = load i32, ptr %7, align 4, !tbaa !41
  %60 = icmp eq i32 %59, 0
  br i1 %60, label %61, label %62

61:                                               ; preds = %53
  store i32 2, ptr %8, align 4, !tbaa !41
  br label %68

62:                                               ; preds = %53
  %63 = load i32, ptr %7, align 4, !tbaa !41
  %64 = icmp ne i32 %63, 47
  br i1 %64, label %65, label %67

65:                                               ; preds = %62
  %66 = load i32, ptr %7, align 4, !tbaa !41
  store i32 %66, ptr %3, align 4
  store i32 1, ptr %10, align 4
  br label %131

67:                                               ; preds = %62
  br label %68

68:                                               ; preds = %67, %61
  br label %69

69:                                               ; preds = %68, %48, %33
  %70 = load i64, ptr %9, align 8, !tbaa !21
  %71 = add i64 %70, 1
  store i64 %71, ptr %9, align 8, !tbaa !21
  br label %11, !llvm.loop !71

72:                                               ; preds = %11
  %73 = load i32, ptr %8, align 4, !tbaa !41
  %74 = icmp eq i32 %73, 1
  br i1 %74, label %75, label %76

75:                                               ; preds = %72
  store i32 47, ptr %3, align 4
  store i32 1, ptr %10, align 4
  br label %131

76:                                               ; preds = %72
  store i64 0, ptr %9, align 8, !tbaa !21
  br label %77

77:                                               ; preds = %127, %76
  %78 = load i64, ptr %9, align 8, !tbaa !21
  %79 = load ptr, ptr %5, align 8, !tbaa !17
  %80 = getelementptr inbounds nuw %struct.NAME_CONSTRAINTS_st, ptr %79, i32 0, i32 1
  %81 = load ptr, ptr %80, align 8, !tbaa !45
  %82 = call i64 @sk_num(ptr noundef %81)
  %83 = icmp ult i64 %78, %82
  br i1 %83, label %84, label %130

84:                                               ; preds = %77
  %85 = load ptr, ptr %5, align 8, !tbaa !17
  %86 = getelementptr inbounds nuw %struct.NAME_CONSTRAINTS_st, ptr %85, i32 0, i32 1
  %87 = load ptr, ptr %86, align 8, !tbaa !45
  %88 = load i64, ptr %9, align 8, !tbaa !21
  %89 = call ptr @sk_value(ptr noundef %87, i64 noundef %88)
  store ptr %89, ptr %6, align 8, !tbaa !19
  %90 = load ptr, ptr %4, align 8, !tbaa !67
  %91 = getelementptr inbounds nuw %struct.GENERAL_NAME_st, ptr %90, i32 0, i32 0
  %92 = load i32, ptr %91, align 8, !tbaa !50
  %93 = load ptr, ptr %6, align 8, !tbaa !19
  %94 = getelementptr inbounds nuw %struct.GENERAL_SUBTREE_st, ptr %93, i32 0, i32 0
  %95 = load ptr, ptr %94, align 8, !tbaa !30
  %96 = getelementptr inbounds nuw %struct.GENERAL_NAME_st, ptr %95, i32 0, i32 0
  %97 = load i32, ptr %96, align 8, !tbaa !50
  %98 = icmp ne i32 %92, %97
  br i1 %98, label %99, label %100

99:                                               ; preds = %84
  br label %127

100:                                              ; preds = %84
  %101 = load ptr, ptr %6, align 8, !tbaa !19
  %102 = getelementptr inbounds nuw %struct.GENERAL_SUBTREE_st, ptr %101, i32 0, i32 1
  %103 = load ptr, ptr %102, align 8, !tbaa !69
  %104 = icmp ne ptr %103, null
  br i1 %104, label %110, label %105

105:                                              ; preds = %100
  %106 = load ptr, ptr %6, align 8, !tbaa !19
  %107 = getelementptr inbounds nuw %struct.GENERAL_SUBTREE_st, ptr %106, i32 0, i32 2
  %108 = load ptr, ptr %107, align 8, !tbaa !70
  %109 = icmp ne ptr %108, null
  br i1 %109, label %110, label %111

110:                                              ; preds = %105, %100
  store i32 49, ptr %3, align 4
  store i32 1, ptr %10, align 4
  br label %131

111:                                              ; preds = %105
  %112 = load ptr, ptr %4, align 8, !tbaa !67
  %113 = load ptr, ptr %6, align 8, !tbaa !19
  %114 = getelementptr inbounds nuw %struct.GENERAL_SUBTREE_st, ptr %113, i32 0, i32 0
  %115 = load ptr, ptr %114, align 8, !tbaa !30
  %116 = call i32 @nc_match_single(ptr noundef %112, ptr noundef %115)
  store i32 %116, ptr %7, align 4, !tbaa !41
  %117 = load i32, ptr %7, align 4, !tbaa !41
  %118 = icmp eq i32 %117, 0
  br i1 %118, label %119, label %120

119:                                              ; preds = %111
  store i32 48, ptr %3, align 4
  store i32 1, ptr %10, align 4
  br label %131

120:                                              ; preds = %111
  %121 = load i32, ptr %7, align 4, !tbaa !41
  %122 = icmp ne i32 %121, 47
  br i1 %122, label %123, label %125

123:                                              ; preds = %120
  %124 = load i32, ptr %7, align 4, !tbaa !41
  store i32 %124, ptr %3, align 4
  store i32 1, ptr %10, align 4
  br label %131

125:                                              ; preds = %120
  br label %126

126:                                              ; preds = %125
  br label %127

127:                                              ; preds = %126, %99
  %128 = load i64, ptr %9, align 8, !tbaa !21
  %129 = add i64 %128, 1
  store i64 %129, ptr %9, align 8, !tbaa !21
  br label %77, !llvm.loop !72

130:                                              ; preds = %77
  store i32 0, ptr %3, align 4
  store i32 1, ptr %10, align 4
  br label %131

131:                                              ; preds = %130, %123, %119, %110, %75, %65, %44
  call void @llvm.lifetime.end.p0(i64 8, ptr %9) #4
  call void @llvm.lifetime.end.p0(i64 4, ptr %8) #4
  call void @llvm.lifetime.end.p0(i64 4, ptr %7) #4
  call void @llvm.lifetime.end.p0(i64 8, ptr %6) #4
  %132 = load i32, ptr %3, align 4
  ret i32 %132
}