; Function Attrs: nounwind uwtable
define internal fastcc range(i32 0, 54) i32 @nc_match(ptr noundef readonly captures(none) %0, ptr noundef readonly captures(none) %1) unnamed_addr #0 {
  %3 = load ptr, ptr %1, align 8, !tbaa !22
  %4 = tail call i64 @sk_num(ptr noundef %3) #6
  %.not57 = icmp eq i64 %4, 0
  br i1 %.not57, label %.preheader, label %.lr.ph

.lr.ph:                                           ; preds = %2, %22
  %.047 = phi i64 [ %23, %22 ], [ 0, %2 ]
  %.03146 = phi i32 [ %.132, %22 ], [ 0, %2 ]
  %5 = load ptr, ptr %1, align 8, !tbaa !22
  %6 = tail call ptr @sk_value(ptr noundef %5, i64 noundef %.047) #6
  %7 = load i32, ptr %0, align 8, !tbaa !25
  %8 = load ptr, ptr %6, align 8, !tbaa !16
  %9 = load i32, ptr %8, align 8, !tbaa !25
  %.not39 = icmp eq i32 %7, %9
  br i1 %.not39, label %10, label %22

10:                                               ; preds = %.lr.ph
  %11 = getelementptr inbounds nuw i8, ptr %6, i64 8
  %12 = load ptr, ptr %11, align 8, !tbaa !44
  %.not40 = icmp eq ptr %12, null
  br i1 %.not40, label %13, label %.loopexit43

13:                                               ; preds = %10
  %14 = getelementptr inbounds nuw i8, ptr %6, i64 16
  %15 = load ptr, ptr %14, align 8, !tbaa !45
  %.not41 = icmp eq ptr %15, null
  br i1 %.not41, label %16, label %.loopexit43

16:                                               ; preds = %13
  %17 = icmp eq i32 %.03146, 2
  br i1 %17, label %22, label %18

18:                                               ; preds = %16
  %19 = tail call fastcc i32 @nc_match_single(ptr noundef nonnull %0, ptr noundef nonnull %8)
  %20 = icmp eq i32 %19, 0
  br i1 %20, label %22, label %21

21:                                               ; preds = %18
  %spec.store.select = tail call i32 @llvm.umax.i32(i32 %.03146, i32 1)
  %.not42 = icmp eq i32 %19, 47
  br i1 %.not42, label %22, label %.loopexit43

22:                                               ; preds = %18, %21, %16, %.lr.ph
  %.132 = phi i32 [ %.03146, %.lr.ph ], [ 2, %16 ], [ %spec.store.select, %21 ], [ 2, %18 ]
  %23 = add nuw i64 %.047, 1
  %24 = load ptr, ptr %1, align 8, !tbaa !22
  %25 = tail call i64 @sk_num(ptr noundef %24) #6
  %26 = icmp ult i64 %23, %25
  br i1 %26, label %.lr.ph, label %._crit_edge, !llvm.loop !46

._crit_edge:                                      ; preds = %22
  %27 = icmp eq i32 %.132, 1
  br i1 %27, label %.loopexit43, label %.preheader

.preheader:                                       ; preds = %2, %._crit_edge
  %28 = getelementptr inbounds nuw i8, ptr %1, i64 8
  %29 = load ptr, ptr %28, align 8, !tbaa !24
  %30 = tail call i64 @sk_num(ptr noundef %29) #6
  %.not58 = icmp eq i64 %30, 0
  br i1 %.not58, label %.loopexit43, label %.lr.ph49

.lr.ph49:                                         ; preds = %.preheader, %44
  %.148 = phi i64 [ %45, %44 ], [ 0, %.preheader ]
  %31 = load ptr, ptr %28, align 8, !tbaa !24
  %32 = tail call ptr @sk_value(ptr noundef %31, i64 noundef %.148) #6
  %33 = load i32, ptr %0, align 8, !tbaa !25
  %34 = load ptr, ptr %32, align 8, !tbaa !16
  %35 = load i32, ptr %34, align 8, !tbaa !25
  %.not = icmp eq i32 %33, %35
  br i1 %.not, label %36, label %44

36:                                               ; preds = %.lr.ph49
  %37 = getelementptr inbounds nuw i8, ptr %32, i64 8
  %38 = load ptr, ptr %37, align 8, !tbaa !44
  %.not36 = icmp eq ptr %38, null
  br i1 %.not36, label %39, label %.loopexit43

39:                                               ; preds = %36
  %40 = getelementptr inbounds nuw i8, ptr %32, i64 16
  %41 = load ptr, ptr %40, align 8, !tbaa !45
  %.not37 = icmp eq ptr %41, null
  br i1 %.not37, label %42, label %.loopexit43

42:                                               ; preds = %39
  %43 = tail call fastcc i32 @nc_match_single(ptr noundef nonnull %0, ptr noundef nonnull %34)
  switch i32 %43, label %.loopexit43 [
    i32 0, label %.loopexit43.loopexit67
    i32 47, label %44
  ]

44:                                               ; preds = %42, %.lr.ph49
  %45 = add nuw i64 %.148, 1
  %46 = load ptr, ptr %28, align 8, !tbaa !24
  %47 = tail call i64 @sk_num(ptr noundef %46) #6
  %48 = icmp ult i64 %45, %47
  br i1 %48, label %.lr.ph49, label %.loopexit43, !llvm.loop !47

.loopexit43.loopexit67:                           ; preds = %42
  br label %.loopexit43

.loopexit43:                                      ; preds = %21, %10, %13, %39, %36, %44, %42, %.loopexit43.loopexit67, %.preheader, %._crit_edge
  %.033 = phi i32 [ 47, %._crit_edge ], [ 0, %.preheader ], [ %43, %42 ], [ 49, %39 ], [ 49, %36 ], [ 0, %44 ], [ 48, %.loopexit43.loopexit67 ], [ %19, %21 ], [ 49, %10 ], [ 49, %13 ]
  ret i32 %.033
}